(lp1
((F6.1775364875793457
F6.1043024063110352
tF2.5553746223449707
F264.4739990234375
F0.035961471498012543
I8782591
I-1
tp2
a((F6.1775364875793457
F6.1043024063110352
tF2.5553746223449707
F210.795166015625
F0.035961471498012543
I8782591
I-1
tp3
a((F14.513588905334473
F7.4317021369934082
tF1.8363068103790283
F4.20135498046875
F0.037841152399778366
I1638911
I-1
tp4
a((F14.513588905334473
F7.4317021369934082
tF1.8363068103790283
F231.00686645507812
F0.037841152399778366
I1638911
I-1
tp5
a((F5.3639240264892578
F10.819879531860352
tF1.9962218999862671
F146.59176635742188
F0.0367734394967556
I7668223
I-1
tp6
a((F16.194545745849609
F12.789883613586426
tF2.0981650352478027
F13.0833740234375
F0.016946176066994667
I11272703
I-1
tp7
a((F8.4430732727050781
F15.736923217773438
tF2.0815362930297852
F268.74267578125
F0.035440348088741302
I10682879
I-1
tp8
a((F4.1331310272216797
F16.660367965698242
tF2.1575162410736084
F226.51519775390625
F0.032859049737453461
I13238783
I-1
tp9
a((F5.1877427101135254
F20.924278259277344
tF1.936772346496582
F147.13250732421875
F0.028496377170085907
I5439999
I-1
tp10
a((F2.6207005977630615
F22.686773300170898
tF2.0025079250335693
F146.9356689453125
F0.03080342710018158
I7864831
I-1
tp11
a((F10.036629676818848
F23.969392776489258
tF2.0995862483978271
F77.011962890625
F0.032847974449396133
I11272703
I-1
tp12
a((F3.8207128047943115
F25.599531173706055
tF1.9908174276351929
F219.45306396484375
F0.031927730888128281
I7471615
I-1
tp13
a((F6.9122905731201172
F28.286092758178711
tF1.979209303855896
F141.34149169921875
F0.037917070090770721
I7012863
I-1
tp14
a((F4.7125339508056641
F29.862995147705078
tF1.8768364191055298
F131.51611328125
F0.043652839958667755
I3211775
I-1
tp15
a((F4.5288009643554688
F35.156776428222656
tF1.9133825302124023
F266.68463134765625
F0.033800512552261353
I4588031
I-1
tp16
a((F7.5619964599609375
F35.132461547851562
tF1.8429825305938721
F243.01193237304688
F0.026134824380278587
I1901055
I-1
tp17
a((F13.275300979614258
F35.134475708007812
tF1.930195689201355
F334.3870849609375
F0.022972734645009041
I5243391
I-1
tp18
a((F10.669897079467773
F36.467697143554688
tF1.8518886566162109
F296.2659912109375
F0.041347146034240723
I2228735
I-1
tp19
a((F10.669897079467773
F36.467697143554688
tF1.8518886566162109
F89.98187255859375
F0.041347146034240723
I2228735
I-1
tp20
a((F12.466951370239258
F38.569137573242188
tF1.8798059225082397
F55.503326416015625
F0.027925299480557442
I3277311
I-1
tp21
a((F13.332006454467773
F41.065208435058594
tF1.9890270233154297
F59.821807861328125
F0.016959119588136673
I7406079
I-1
tp22
a((F11.350074768066406
F5.6008000373840332
tF2.4998102188110352
F306.71514892578125
F0.026678549125790596
I7209727
I-1
tp23
a((F14.811286926269531
F32.428749084472656
tF2.2386448383331299
F334.0704345703125
F0.014371003955602646
I15925759
I-1
tp24
a((F8.4119510650634766
F39.632575988769531
tF2.8229773044586182
F88.598602294921875
F0.031323298811912537
I15991551
I-1
tp25
a((F13.014843940734863
F10.752944946289062
tF3.3650116920471191
F11.85260009765625
F0.038175534456968307
I11994111
I-1
tp26
a((F12.071276664733887
F28.473665237426758
tF3.2616806030273438
F0.4461669921875
F0.033689867705106735
I9765887
I-1
tp27
a((F5.7295265197753906
F6.8448991775512695
tF3.9355378150939941
F207.54081726074219
F0.035213526338338852
I6619392
I-1
tp28
a((F6.8246831893920898
F37.93634033203125
tF5.2234969139099121
F131.98713684082031
F0.033918797969818115
I10355200
I-1
tp29
a.