(lp1
((F14.100378036499023
F2.4412274360656738
tF2.0667655467987061
F253.09573364257812
F0.03249957412481308
I10158591
I-1
tp2
a((F19.768953323364258
F2.379702091217041
tF1.8919963836669922
F292.2296142578125
F0.026609092950820923
I3801599
I-1
tp3
a((F17.141822814941406
F4.3969426155090332
tF1.9130356311798096
F267.73941040039062
F0.03648555651307106
I4588031
I-1
tp4
a((F10.60560417175293
F11.37077522277832
tF1.883907675743103
F118.72250366210938
F0.027781374752521515
I3473919
I-1
tp5
a((F13.878357887268066
F11.421960830688477
tF2.1254763603210449
F84.973876953125
F0.02874310314655304
I12190207
I-1
tp6
a((F13.878357887268066
F11.421960830688477
tF2.1254763603210449
F21.00140380859375
F0.02874310314655304
I12190207
I-1
tp7
a((F2.965463399887085
F13.050436973571777
tF1.9355705976486206
F33.03558349609375
F0.038468483835458755
I5439999
I-1
tp8
a((F27.6357421875
F2.7096405029296875
tF2.5199081897735596
F248.64164733886719
F0.028032297268509865
I7799551
I-1
tp9
a((F27.6357421875
F2.7096405029296875
tF2.5199081897735596
F40.44512939453125
F0.028032297268509865
I7799551
I-1
tp10
a((F24.39018440246582
F4.9207024574279785
tF2.3403275012969971
F173.60137939453125
F0.030813448131084442
I2425599
I-1
tp11
a((F24.39018440246582
F4.9207024574279785
tF2.3403275012969971
F20.388031005859375
F0.030813448131084442
I2425599
I-1
tp12
a((F30.302959442138672
F5.7812962532043457
tF2.2690379619598389
F6.335418701171875
F0.022404743358492851
I197375
I-1
tp13
a((F14.331571578979492
F6.6568574905395508
tF2.6040885448455811
F187.46247863769531
F0.027300333604216576
I10158847
I-1
tp14
a((F19.05360221862793
F7.4589834213256836
tF2.6538100242614746
F12.593994140625
F0.025746790692210197
I11535103
I-1
tp15
a((F8.1264476776123047
F8.4297780990600586
tF2.5887734889984131
F323.48263549804688
F0.024347135797142982
I9765631
I-1
tp16
a((F16.938055038452148
F10.2503662109375
tF2.2800090312957764
F126.11053466796875
F0.029470197856426239
I525055
I-1
tp17
a((F16.938055038452148
F10.2503662109375
tF2.2800090312957764
F32.590667724609375
F0.029470197856426239
I525055
I-1
tp18
a((F27.519208908081055
F10.847064018249512
tF2.4274215698242188
F177.63536071777344
F0.033100500702857971
I5112575
I-1
tp19
a((F27.519208908081055
F10.847064018249512
tF2.4274215698242188
F9.76763916015625
F0.033100500702857971
I5112575
I-1
tp20
a((F6.670809268951416
F12.190702438354492
tF2.5870373249053955
F107.57035827636719
F0.026977162808179855
I9700095
I-1
tp21
a((F6.670809268951416
F12.190702438354492
tF2.5870373249053955
F52.362091064453125
F0.026977162808179855
I9700095
I-1
tp22
a((F4.9127888679504395
F3.7884078025817871
tF2.831801176071167
F316.34542846679688
F0.037836924195289612
I16253695
I-1
tp23
a((F4.9127888679504395
F3.7884078025817871
tF2.831801176071167
F196.65432739257812
F0.037836924195289612
I16253695
I-1
tp24
a((F23.697309494018555
F7.5836601257324219
tF3.288438081741333
F9.950286865234375
F0.030660973861813545
I10355711
I-1
tp25
a((F16.556613922119141
F6.6280064582824707
tF6.2762494087219238
F80.13348388671875
F0.023307126015424728
I6947584
I-1
tp26
a.