(lp1
((F15.932092666625977
F5.4036321640014648
tF1.8939059972763062
F244.34213256835938
F0.027410421520471573
I3867135
I-1
tp2
a((F15.932092666625977
F5.4036321640014648
tF1.8939059972763062
F75.4439697265625
F0.027410421520471573
I3867135
I-1
tp3
a((F17.838695526123047
F7.2917919158935547
tF1.9006937742233276
F187.88046264648438
F0.028054621070623398
I4129279
I-1
tp4
a((F5.1056208610534668
F8.1243200302124023
tF2.1603164672851562
F333.83642578125
F0.035749491304159164
I13369855
I-1
tp5
a((F5.1056208610534668
F8.1243200302124023
tF2.1603164672851562
F177.07440185546875
F0.035749491304159164
I13369855
I-1
tp6
a((F20.141563415527344
F8.8841562271118164
tF1.8027023077011108
F190.20843505859375
F0.025052156299352646
I262655
I-1
tp7
a((F22.701471328735352
F9.7974433898925781
tF1.8530594110488892
F281.23455810546875
F0.026658590883016586
I2294271
I-1
tp8
a((F22.701471328735352
F9.7974433898925781
tF1.8530594110488892
F8.32659912109375
F0.026658590883016586
I2294271
I-1
tp9
a((F24.06193733215332
F12.192290306091309
tF1.9425697326660156
F280.60003662109375
F0.034626126289367676
I5702143
I-1
tp10
a((F24.06193733215332
F12.192290306091309
tF1.9425697326660156
F60.097900390625
F0.034626126289367676
I5702143
I-1
tp11
a((F10.102736473083496
F14.718501091003418
tF2.2792298793792725
F120.6959228515625
F0.029781155288219452
I525055
I-1
tp12
a((F10.102736473083496
F14.718501091003418
tF2.2792298793792725
F32.257659912109375
F0.029781155288219452
I525055
I-1
tp13
a((F12.408491134643555
F6.8140673637390137
tF2.7493960857391357
F182.83880615234375
F0.028764763846993446
I14091007
I-1
tp14
a((F8.8357439041137695
F9.1764059066772461
tF2.3201985359191895
F180.49955749511719
F0.048629336059093475
I1835775
I-1
tp15
a((F16.10761833190918
F12.032876014709473
tF2.5052852630615234
F359.39111328125
F0.03575509786605835
I7340799
I-1
tp16
a((F20.518762588500977
F4.4193453788757324
tF3.3643620014190674
F358.16867065429688
F0.038935966789722443
I11994111
I-1
tp17
a((F20.518762588500977
F4.4193453788757324
tF3.3643620014190674
F251.46823120117188
F0.038935966789722443
I11994111
I-1
tp18
a((F6.5808825492858887
F12.5712890625
tF3.5154645442962646
F169.51251220703125
F0.033964004367589951
I15139839
I-1
tp19
a((F20.156953811645508
F13.08278751373291
tF3.2919445037841797
F77.561004638671875
F0.041246678680181503
I10421247
I-1
tp20
a.