(lp1
((F13.675110816955566
F10.597142219543457
tF1.8644447326660156
F341.38882446289062
F0.029381955042481422
I2687487
I-1
tp2
a((F4.1606674194335938
F10.858468055725098
tF2.1739797592163086
F81.22454833984375
F0.041808847337961197
I13828607
I-1
tp3
a((F16.900569915771484
F14.594853401184082
tF1.8043148517608643
F308.047119140625
F0.016306661069393158
I328191
I-1
tp4
a((F17.348699569702148
F19.99708366394043
tF2.0218236446380615
F354.27581787109375
F0.033686410635709763
I8585727
I-1
tp5
a((F17.348699569702148
F19.99708366394043
tF2.0218236446380615
F43.749176025390625
F0.033686410635709763
I8585727
I-1
tp6
a((F14.751923561096191
F23.064182281494141
tF1.9966236352920532
F260.7606201171875
F0.042804937809705734
I7668223
I-1
tp7
a((F14.751923561096191
F23.064182281494141
tF1.9966236352920532
F37.060302734375
F0.042804937809705734
I7668223
I-1
tp8
a((F6.701298713684082
F26.307209014892578
tF1.8594373464584351
F129.32829284667969
F0.028218464925885201
I2490879
I-1
tp9
a((F2.9753937721252441
F28.556644439697266
tF1.9649780988693237
F349.46307373046875
F0.024168351665139198
I6488575
I-1
tp10
a((F2.9753937721252441
F28.556644439697266
tF1.9649780988693237
F190.780517578125
F0.024168351665139198
I6488575
I-1
tp11
a((F9.4454278945922852
F31.145795822143555
tF1.9131618738174438
F106.66204833984375
F0.032871291041374207
I4588031
I-1
tp12
a((F14.651765823364258
F31.890422821044922
tF1.9227104187011719
F352.8101806640625
F0.043956853449344635
I4915711
I-1
tp13
a((F16.094642639160156
F35.133907318115234
tF1.8879127502441406
F26.339874267578125
F0.031064147129654884
I3604991
I-1
tp14
a((F8.2317352294921875
F35.403659820556641
tF1.9414957761764526
F230.33193969726562
F0.029710687696933746
I5636607
I-1
tp15
a((F11.230300903320312
F37.006877899169922
tF2.0254044532775879
F272.3525390625
F0.037975896149873734
I8716799
I-1
tp16
a((F3.6233813762664795
F39.564117431640625
tF2.0069551467895508
F170.78889465332031
F0.034136902540922165
I8061439
I-1
tp17
a((F9.4297094345092773
F45.068073272705078
tF1.9264450073242188
F227.58377075195312
F0.033012483268976212
I5046783
I-1
tp18
a((F9.4297094345092773
F45.068073272705078
tF1.9264450073242188
F48.029296875
F0.033012483268976212
I5046783
I-1
tp19
a((F16.327367782592773
F45.461448669433594
tF2.2374207973480225
F126.89530944824219
F0.037797853350639343
I15925759
I-1
tp20
a((F3.1878645420074463
F45.687099456787109
tF1.811374306678772
F183.24333190917969
F0.029874216765165329
I590335
I-1
tp21
a((F3.1878645420074463
F45.687099456787109
tF1.811374306678772
F12.14984130859375
F0.029874216765165329
I590335
I-1
tp22
a((F2.3677685260772705
F51.714370727539062
tF1.8435951471328735
F185.20201110839844
F0.037076063454151154
I1901055
I-1
tp23
a((F18.422792434692383
F52.118743896484375
tF2.0177707672119141
F287.112060546875
F0.03540598601102829
I8454655
I-1
tp24
a((F18.811561584472656
F55.596961975097656
tF2.0600059032440186
F44.68157958984375
F0.013418489135801792
I9896447
I-1
tp25
a((F14.527309417724609
F58.92620849609375
tF2.1127216815948486
F333.46762084960938
F0.028047669678926468
I11731455
I-1
tp26
a((F14.527309417724609
F58.92620849609375
tF2.1127216815948486
F58.62542724609375
F0.028047669678926468
I11731455
I-1
tp27
a((F13.947089195251465
F62.327728271484375
tF1.9335473775863647
F333.438232421875
F0.039404213428497314
I5308927
I-1
tp28
a((F13.947089195251465
F62.327728271484375
tF1.9335473775863647
F122.94180297851562
F0.039404213428497314
I5308927
I-1
tp29
a((F5.2076859474182129
F64.701751708984375
tF2.2876079082489014
F278.02703857421875
F0.040159780532121658
I787199
I-1
tp30
a((F5.2076859474182129
F64.701751708984375
tF2.2876079082489014
F211.89907836914062
F0.040159780532121658
I787199
I-1
tp31
a((F7.3054327964782715
F70.94512939453125
tF1.9268417358398438
F198.40538024902344
F0.039750397205352783
I5112319
I-1
tp32
a((F16.561391830444336
F28.665302276611328
tF2.5610668659210205
F298.48175048828125
F0.035346649587154388
I8979199
I-1
tp33
a((F12.495704650878906
F28.869945526123047
tF2.4373955726623535
F277.342041015625
F0.031329687684774399
I5374719
I-1
tp34
a((F11.607808113098145
F33.676322937011719
tF2.3503937721252441
F222.3328857421875
F0.026766348630189896
I2753279
I-1
tp35
a((F10.277126312255859
F54.012680053710938
tF2.8033626079559326
F260.5164794921875
F0.033645663410425186
I15467263
I-1
tp36
a((F10.277126312255859
F54.012680053710938
tF2.8033626079559326
F104.40650939941406
F0.033645663410425186
I15467263
I-1
tp37
a((F6.7043251991271973
F57.141445159912109
tF2.3436934947967529
F263.08523559570312
F0.037531554698944092
I2556671
I-1
tp38
a((F6.7043251991271973
F57.141445159912109
tF2.3436934947967529
F119.24212646484375
F0.037531554698944092
I2556671
I-1
tp39
a((F10.711833953857422
F63.338172912597656
tF2.4867115020751953
F290.22039794921875
F0.033355783671140671
I6816511
I-1
tp40
a((F9.2382040023803711
F66.573562622070312
tF2.7978620529174805
F290.61444091796875
F0.031413637101650238
I15336191
I-1
tp41
a((F12.838462829589844
F68.086204528808594
tF2.4644250869750977
F19.443206787109375
F0.035336963832378387
I6161151
I-1
tp42
a((F12.244956970214844
F19.815517425537109
tF3.0108888149261475
F272.09014892578125
F0.05322657898068428
I3933183
I-1
tp43
a((F18.420949935913086
F24.742124557495117
tF3.1655986309051514
F312.45849609375
F0.032718043774366379
I7603199
I-1
tp44
a((F18.420949935913086
F24.742124557495117
tF3.1655986309051514
F37.3837890625
F0.032718043774366379
I7603199
I-1
tp45
a((F12.627636909484863
F47.172397613525391
tF3.0675244331359863
F289.55081176757812
F0.042831335216760635
I5309439
I-1
tp46
a((F12.627636909484863
F47.172397613525391
tF3.0675244331359863
F103.82205200195312
F0.042831335216760635
I5309439
I-1
tp47
a((F11.157101631164551
F7.8071374893188477
tF4.0111575126647949
F343.42324829101562
F0.035365067422389984
I7995648
I-1
tp48
a((F11.157101631164551
F7.8071374893188477
tF4.0111575126647949
F236.84536743164062
F0.035365067422389984
I7995648
I-1
tp49
a.